Certificate:
    Data:
        Version: 3 (0x2)
        Serial Number: 995779 (0xf31c3)
        Signature Algorithm: sha1WithRSAEncryption
        Issuer: C=US, ST=California, L=Sunnyvale, O=Fortinet, OU=Certificate Authority, CN=support/emailAddress=support@fortinet.com
        Validity
            Not Before: Jun  5 01:35:53 2013 GMT
            Not After : Jan 19 03:14:07 2038 GMT
        Subject: C=US, ST=California, L=Sunnyvale, O=Fortinet, OU=FortiGate, CN=FWF60D4613006398/emailAddress=support@fortinet.com
        Subject Public Key Info:
            Public Key Algorithm: rsaEncryption
            RSA Public Key: (1024 bit)
                Modulus (1024 bit):
                    00:d0:81:a4:16:8e:0c:2d:24:38:35:6f:75:b2:9c:
                    fe:8d:c5:df:19:6f:7a:f5:d5:48:6e:2d:5b:86:4e:
                    84:9d:12:49:68:1a:6d:a9:8b:cb:dc:a7:8d:6d:ec:
                    d9:d6:dd:b9:6e:c2:ef:79:4a:56:f6:df:7c:59:85:
                    d6:30:4d:60:db:19:7a:be:7a:c1:3d:72:c2:aa:05:
                    91:db:52:1d:84:4b:2b:b8:a1:3b:09:71:7a:76:94:
                    bf:3a:42:a3:68:fd:0a:3c:f2:bf:65:f2:52:61:12:
                    ce:a1:f5:b0:2a:7d:46:ff:a3:3d:f3:e9:9b:7d:41:
                    34:ae:d5:1f:2f:00:5a:19:49
                Exponent: 65537 (0x10001)
        X509v3 extensions:
            X509v3 Basic Constraints: 
                CA:FALSE
    Signature Algorithm: sha1WithRSAEncryption
        92:a6:19:a1:23:18:52:94:e8:d8:7e:fd:51:15:45:8b:e9:44:
        eb:45:eb:4e:c5:b1:02:21:e3:76:03:89:ba:39:91:fb:c0:4c:
        69:e3:95:da:af:17:12:6b:16:4d:44:2d:a0:91:5f:5d:b6:6e:
        61:66:41:3a:76:32:a8:ff:79:b8:4d:a3:65:c8:31:ff:04:93:
        b9:35:3b:10:46:ce:7c:72:87:53:78:f3:6a:ff:52:68:94:c8:
        27:7e:44:d1:23:a7:b9:21:e2:d8:36:ac:12:c9:03:9a:5a:be:
        d9:76:95:28:22:60:bf:8c:6a:4e:1e:d0:3c:12:38:54:70:03:
        0d:7f:4c:17:a5:7d:87:63:42:46:06:59:ff:aa:cc:0c:42:3b:
        6d:1b:2e:e0:9f:5a:28:cc:66:03:65:c6:b1:ce:c3:7b:41:e8:
        5b:8e:58:a5:f3:77:85:28:0a:13:a6:03:d0:69:81:8a:b1:cc:
        93:8c:c6:b2:ec:a1:77:3d:fd:df:59:a7:99:ed:48:13:dd:f7:
        74:0a:56:df:08:9d:47:79:93:bf:ab:d3:f8:39:ee:39:46:d7:
        29:fa:fe:96:18:95:d5:a2:4d:5d:5d:7d:54:f3:9e:4b:52:e2:
        06:79:f3:b5:d6:6f:86:ed:27:57:d5:56:ed:05:78:0d:ca:2a:
        20:16:b3:8c
-----BEGIN CERTIFICATE-----
MIIDRTCCAi2gAwIBAgIDDzHDMA0GCSqGSIb3DQEBBQUAMIGgMQswCQYDVQQGEwJV
UzETMBEGA1UECBMKQ2FsaWZvcm5pYTESMBAGA1UEBxMJU3Vubnl2YWxlMREwDwYD
VQQKEwhGb3J0aW5ldDEeMBwGA1UECxMVQ2VydGlmaWNhdGUgQXV0aG9yaXR5MRAw
DgYDVQQDEwdzdXBwb3J0MSMwIQYJKoZIhvcNAQkBFhRzdXBwb3J0QGZvcnRpbmV0
LmNvbTAeFw0xMzA2MDUwMTM1NTNaFw0zODAxMTkwMzE0MDdaMIGdMQswCQYDVQQG
EwJVUzETMBEGA1UECBMKQ2FsaWZvcm5pYTESMBAGA1UEBxMJU3Vubnl2YWxlMREw
DwYDVQQKEwhGb3J0aW5ldDESMBAGA1UECxMJRm9ydGlHYXRlMRkwFwYDVQQDExBG
V0Y2MEQ0NjEzMDA2Mzk4MSMwIQYJKoZIhvcNAQkBFhRzdXBwb3J0QGZvcnRpbmV0
LmNvbTCBnzANBgkqhkiG9w0BAQEFAAOBjQAwgYkCgYEA0IGkFo4MLSQ4NW91spz+
jcXfGW969dVIbi1bhk6EnRJJaBptqYvL3KeNbezZ1t25bsLveUpW9t98WYXWME1g
2xl6vnrBPXLCqgWR21IdhEsruKE7CXF6dpS/OkKjaP0KPPK/ZfJSYRLOofWwKn1G
/6M98+mbfUE0rtUfLwBaGUkCAwEAAaMNMAswCQYDVR0TBAIwADANBgkqhkiG9w0B
AQUFAAOCAQEAkqYZoSMYUpTo2H79URVFi+lE60XrTsWxAiHjdgOJujmR+8BMaeOV
2q8XEmsWTUQtoJFfXbZuYWZBOnYyqP95uE2jZcgx/wSTuTU7EEbOfHKHU3jzav9S
aJTIJ35E0SOnuSHi2DasEskDmlq+2XaVKCJgv4xqTh7QPBI4VHADDX9MF6V9h2NC
RgZZ/6rMDEI7bRsu4J9aKMxmA2XGsc7De0HoW45YpfN3hSgKE6YD0GmBirHMk4zG
suyhdz3931mnme1IE933dApW3widR3mTv6vT+DnuOUbXKfr+lhiV1aJNXV19VPOe
S1LiBnnztdZvhu0nV9VW7QV4DcoqIBazjA==
-----END CERTIFICATE-----